(lp0
(lp1
(dp2
S'sample'
p3
(lp4
c_numpypy.multiarray
scalar
p5
(cnumpy
dtype
p6
(S'i8'
p7
I0
I1
tp8
Rp9
(I3
S'<'
p10
NNNI-1
I-1
I0
tp11
bS'\x04\x00\x00\x00\x00\x00\x00\x00'
p12
tp13
Rp14
ag5
(g9
S'\r\x00\x00\x00\x00\x00\x00\x00'
p15
tp16
Rp17
ag5
(g9
S'\n\x00\x00\x00\x00\x00\x00\x00'
p18
tp19
Rp20
ag5
(g9
S'\x08\x00\x00\x00\x00\x00\x00\x00'
p21
tp22
Rp23
ag5
(g9
S'\x14\x00\x00\x00\x00\x00\x00\x00'
p24
tp25
Rp26
ag5
(g9
S'\x0f\x00\x00\x00\x00\x00\x00\x00'
p27
tp28
Rp29
ag5
(g9
S'\x05\x00\x00\x00\x00\x00\x00\x00'
p30
tp31
Rp32
ag5
(g9
S'\x0b\x00\x00\x00\x00\x00\x00\x00'
p33
tp34
Rp35
ag5
(g9
S'\x06\x00\x00\x00\x00\x00\x00\x00'
p36
tp37
Rp38
ag5
(g9
S'\x07\x00\x00\x00\x00\x00\x00\x00'
p39
tp40
Rp41
ag5
(g9
S'\x00\x00\x00\x00\x00\x00\x00\x00'
p42
tp43
Rp44
ag5
(g9
S'\x12\x00\x00\x00\x00\x00\x00\x00'
p45
tp46
Rp47
ag5
(g9
S'\x0e\x00\x00\x00\x00\x00\x00\x00'
p48
tp49
Rp50
ag5
(g9
S'\x02\x00\x00\x00\x00\x00\x00\x00'
p51
tp52
Rp53
ag5
(g9
S'\t\x00\x00\x00\x00\x00\x00\x00'
p54
tp55
Rp56
ag5
(g9
S'\x11\x00\x00\x00\x00\x00\x00\x00'
p57
tp58
Rp59
ag5
(g9
S'\x13\x00\x00\x00\x00\x00\x00\x00'
p60
tp61
Rp62
ag5
(g9
S'\x10\x00\x00\x00\x00\x00\x00\x00'
p63
tp64
Rp65
ag5
(g9
S'\x01\x00\x00\x00\x00\x00\x00\x00'
p66
tp67
Rp68
ag5
(g9
S'\x03\x00\x00\x00\x00\x00\x00\x00'
p69
tp70
Rp71
ag5
(g9
S'\x0c\x00\x00\x00\x00\x00\x00\x00'
p72
tp73
Rp74
asS'edge_accuracy'
p75
(g5
(g6
(S'f8'
p76
I0
I1
tp77
Rp78
(I3
g10
NNNI-1
I-1
I0
tp79
bS'\xa5-iK\xda\x92\xe6?'
p80
tp81
Rp82
g5
(g78
S'\x8a\x9d\xd8\x89\x9d\xd8\xe5?'
p83
tp84
Rp85
tp86
sS'full_groups_accuracy'
p87
g5
(g78
S'\x15\xbc\x9c\x82\x97S\xe0?'
p88
tp89
Rp90
sS'g_hat_groups_accuracy'
p91
g5
(g78
S'\x15\xbc\x9c\x82\x97S\xe0?'
p92
tp93
Rp94
sS'em_iterations'
p95
I1
sS'b_hat_p'
p96
(lp97
(lp98
F0.6111111111111112
aF0.1111111111111111
aa(lp99
F0.5555555555555556
aF0.48
aasS'full_data_p'
p100
(lp101
(lp102
(lp103
F0.032
aF0.037037037037037035
aa(lp104
F0.007407407407407408
aF0.040740740740740744
aaa(lp105
(lp106
F0.0
aF0.0
aa(lp107
F0.0
aF0.0
aaasS'b_groups_pfp'
p108
(lp109
(lp110
(lp111
F0.0
aF0.0
aa(lp112
F0.0
aF0.0
aaa(lp113
(lp114
F0.2916666666666667
aF0.3
aa(lp115
F0.32608695652173914
aF0.3229166666666667
aaasS'b_groups_pfn'
p116
(lp117
(lp118
(lp119
F0.0
aF0.0
aa(lp120
F0.0
aF0.0
aaa(lp121
(lp122
F1.0
aF0.26666666666666666
aa(lp123
F0.4117647058823529
aF0.234375
aaasS'full_groups_pfp'
p124
(lp125
(lp126
(lp127
F0.39156626506024095
aF0.3269230769230769
aa(lp128
F0.0945945945945946
aF0.5
aaa(lp129
(lp130
F0.0
aF0.0
aa(lp131
F0.0
aF0.0
aaasS'full_groups_pfn'
p132
(lp133
(lp134
(lp135
F0.2711864406779661
aF0.13157894736842105
aa(lp136
F0.8125
aF0.25
aaa(lp137
(lp138
F0.0
aF0.0
aa(lp139
F0.0
aF0.0
aaasa(dp140
g3
g4
sg75
(g5
(g78
S"\xb1'\xec\t{\xc2\xde?"
p141
tp142
Rp143
g5
(g78
S'\x14;\xb1\x13;\xb1\xeb?'
p144
tp145
Rp146
tp147
sg87
g5
(g78
S'\x02\xdc-\xb9I\t\xe0?'
p148
tp149
Rp150
sg91
g5
(g78
S':|z\x153\xe8\xe0?'
p151
tp152
Rp153
sg95
I13
sg96
(lp154
(lp155
F0.3333333333333333
aF0.0
aa(lp156
F0.37037037037037035
aF0.2569444444444444
aasg100
(lp157
(lp158
(lp159
F0.061224489795918366
aF0.004373177842565598
aa(lp160
F0.0641399416909621
aF0.05102040816326531
aaa(lp161
(lp162
F0.04518950437317784
aF0.016034985422740525
aa(lp163
F0.033527696793002916
aF0.03316326530612245
aaasg108
(lp164
(lp165
(lp166
F0.0
aF0.0
aa(lp167
F0.0
aF0.0
aaa(lp168
(lp169
F0.14583333333333334
aF0.21
aa(lp170
F0.2608695652173913
aF0.2916666666666667
aaasg116
(lp171
(lp172
(lp173
F0.0
aF0.0
aa(lp174
F0.0
aF0.0
aaa(lp175
(lp176
F1.0
aF0.36666666666666664
aa(lp177
F0.47058823529411764
aF0.296875
aaasg124
(lp178
(lp179
(lp180
F0.25806451612903225
aF0.0
aa(lp181
F0.3018867924528302
aF0.2907801418439716
aaa(lp182
(lp183
F0.4838709677419355
aF0.1839080459770115
aa(lp184
F0.24528301886792453
aF0.3900709219858156
aaasg132
(lp185
(lp186
(lp187
F0.2777777777777778
aF0.7272727272727273
aa(lp188
F0.37777777777777777
aF0.4727272727272727
aaa(lp189
(lp190
F0.1111111111111111
aF0.45454545454545453
aa(lp191
F0.26666666666666666
aF0.34545454545454546
aaasa(dp192
g3
g4
sg75
(g5
(g78
S'\xe4\ryC\xde\x90\xe7?'
p193
tp194
Rp195
g5
(g78
S"b'vb'v\xe6?"
p196
tp197
Rp198
tp199
sg87
g5
(g78
S'\x02\xdc-\xb9I\t\xe0?'
p200
tp201
Rp202
sg91
g5
(g78
S':|z\x153\xe8\xe0?'
p203
tp204
Rp205
sg95
I110
sg96
(lp206
(lp207
F0.5694444444444444
aF0.1388888888888889
aa(lp208
F0.4074074074074074
aF0.5802469135802469
aasg100
(lp209
(lp210
(lp211
F0.04918981481481482
aF0.07021604938271606
aa(lp212
F0.020061728395061727
aF0.0668724279835391
aaa(lp213
(lp214
F0.041666666666666664
aF0.05452674897119342
aa(lp215
F0.00205761316872428
aF0.039780521262002745
aaasg108
(lp216
(lp217
(lp218
F0.08333333333333333
aF0.08
aa(lp219
F0.15217391304347827
aF0.041666666666666664
aaa(lp220
(lp221
F0.14583333333333334
aF0.21
aa(lp222
F0.2608695652173913
aF0.2916666666666667
aaasg116
(lp223
(lp224
(lp225
F1.0
aF0.7333333333333333
aa(lp226
F0.47058823529411764
aF0.53125
aaa(lp227
(lp228
F1.0
aF0.36666666666666664
aa(lp229
F0.47058823529411764
aF0.296875
aaasg124
(lp230
(lp231
(lp232
F0.2391304347826087
aF0.17592592592592593
aa(lp233
F0.10106382978723404
aF0.2755102040816326
aaa(lp234
(lp235
F0.33043478260869563
aF0.3333333333333333
aa(lp236
F0.0
aF0.1836734693877551
aaasg132
(lp237
(lp238
(lp239
F0.4827586206896552
aF0.3333333333333333
aa(lp240
F0.75
aF0.40625
aaa(lp241
(lp242
F0.4482758620689655
aF0.35185185185185186
aa(lp243
F0.8571428571428571
aF0.375
aaasa(dp244
g3
g4
sg75
(g5
(g78
S'S\xd6\x945eM\xe9?'
p245
tp246
Rp247
g5
(g78
S'\xab\xaa\xaa\xaa\xaa\xaa\xe6?'
p248
tp249
Rp250
tp251
sg87
g5
(g78
S'\x9f^\xc5\x0c:|\xea?'
p252
tp253
Rp254
sg91
g5
(g78
S'\x15\xbc\x9c\x82\x97S\xe0?'
p255
tp256
Rp257
sg95
I72
sg96
(lp258
(lp259
F0.4297520661157025
aF0.17272727272727273
aa(lp260
F0.4818181818181818
aF0.69
aasg100
(lp261
(lp262
(lp263
F0.062242798353909466
aF0.06790123456790123
aa(lp264
F0.05452674897119342
aF0.0
aaa(lp265
(lp266
F0.046296296296296294
aF0.16049382716049382
aa(lp267
F0.037037037037037035
aF0.0
aaasg108
(lp268
(lp269
(lp270
F0.08333333333333333
aF0.08
aa(lp271
F0.15217391304347827
aF0.041666666666666664
aaa(lp272
(lp273
F0.16666666666666666
aF0.21333333333333335
aa(lp274
F0.2536231884057971
aF0.2708333333333333
aaasg116
(lp275
(lp276
(lp277
F1.0
aF0.7333333333333333
aa(lp278
F0.47058823529411764
aF0.53125
aaa(lp279
(lp280
F1.0
aF0.36666666666666664
aa(lp281
F0.47058823529411764
aF0.2916666666666667
aaasg124
(lp282
(lp283
(lp284
F0.2606310013717421
aF0.25757575757575757
aa(lp285
F0.24561403508771928
aF0.0
aaa(lp286
(lp287
F0.04526748971193416
aF0.36363636363636365
aa(lp288
F0.05263157894736842
aF0.0
aaasg132
(lp289
(lp290
(lp291
F0.2880658436213992
aF0.4895833333333333
aa(lp292
F0.4791666666666667
aF0.0
aaa(lp293
(lp294
F0.5802469135802469
aF0.4375
aa(lp295
F0.75
aF0.0
aaasa(dp296
g3
g4
sg75
(g5
(g78
S'c\xce\x983\xe6\x8c\xe9?'
p297
tp298
Rp299
g5
(g78
S'\x834H\x834H\xe7?'
p300
tp301
Rp302
tp303
sg87
g5
(g78
S'\x15\xbc\x9c\x82\x97S\xe0?'
p304
tp305
Rp306
sg91
g5
(g78
S'\x15\xbc\x9c\x82\x97S\xe0?'
p307
tp308
Rp309
sg95
I38
sg96
(lp310
(lp311
F0.6944444444444444
aF0.35555555555555557
aa(lp312
F0.2
aF0.5022222222222222
aasg100
(lp313
(lp314
(lp315
F0.10666666666666667
aF0.04666666666666667
aa(lp316
F0.06444444444444444
aF0.09074074074074075
aaa(lp317
(lp318
F0.07851851851851852
aF0.08148148148148149
aa(lp319
F0.037037037037037035
aF0.12962962962962962
aaasg108
(lp320
(lp321
(lp322
F0.08333333333333333
aF0.16
aa(lp323
F0.17391304347826086
aF0.203125
aaa(lp324
(lp325
F0.16666666666666666
aF0.21333333333333335
aa(lp326
F0.2536231884057971
aF0.2708333333333333
aaasg116
(lp327
(lp328
(lp329
F0.5
aF0.43333333333333335
aa(lp330
F0.3382352941176471
aF0.3671875
aaa(lp331
(lp332
F1.0
aF0.36666666666666664
aa(lp333
F0.47058823529411764
aF0.2916666666666667
aaasg124
(lp334
(lp335
(lp336
F0.25
aF0.14333333333333334
aa(lp337
F0.16549295774647887
aF0.25
aaa(lp338
(lp339
F0.2785714285714286
aF0.4
aa(lp340
F0.07042253521126761
aF0.7307692307692307
aaasg132
(lp341
(lp342
(lp343
F0.35294117647058826
aF0.6666666666666666
aa(lp344
F0.47368421052631576
aF0.425
aaa(lp345
(lp346
F0.21176470588235294
aF0.06666666666666667
aa(lp347
F0.21052631578947367
aF0.1
aaasa(dp348
g3
g4
sg75
(g5
(g78
S'\xb5%mI[\xd2\xe6?'
p349
tp350
Rp351
g5
(g78
S'\xf9\x96o\xf9\x96o\xe9?'
p352
tp353
Rp354
tp355
sg87
g5
(g78
S':|z\x153\xe8\xe0?'
p356
tp357
Rp358
sg91
g5
(g78
S'\x15\xbc\x9c\x82\x97S\xe0?'
p359
tp360
Rp361
sg95
I28
sg96
(lp362
(lp363
F0.378698224852071
aF0.038461538461538464
aa(lp364
F0.375
aF0.765625
aasg100
(lp365
(lp366
(lp367
F0.20699708454810495
aF0.18075801749271136
aa(lp368
F0.1282798833819242
aF0.14504373177842567
aaa(lp369
(lp370
F0.07871720116618076
aF0.05393586005830904
aa(lp371
F0.01020408163265306
aF0.0663265306122449
aaasg108
(lp372
(lp373
(lp374
F0.08333333333333333
aF0.16
aa(lp375
F0.17391304347826086
aF0.203125
aaa(lp376
(lp377
F0.125
aF0.175
aa(lp378
F0.19021739130434784
aF0.2109375
aaasg116
(lp379
(lp380
(lp381
F0.5
aF0.43333333333333335
aa(lp382
F0.3382352941176471
aF0.3671875
aaa(lp383
(lp384
F1.0
aF0.4666666666666667
aa(lp385
F0.5441176470588235
aF0.37109375
aaasg124
(lp386
(lp387
(lp388
F0.3118279569892473
aF0.2459016393442623
aa(lp389
F0.2689393939393939
aF0.22727272727272727
aaa(lp390
(lp391
F0.20430107526881722
aF0.15300546448087432
aa(lp392
F0.015151515151515152
aF0.18181818181818182
aaasg132
(lp393
(lp394
(lp395
F0.2222222222222222
aF0.2882882882882883
aa(lp396
F0.43333333333333335
aF0.4322916666666667
aaa(lp397
(lp398
F0.35185185185185186
aF0.5855855855855856
aa(lp399
F0.6666666666666666
aF0.4270833333333333
aaasa(dp400
g3
g4
sg75
(g5
(g78
S'\x04\xfe\x80?\xe0\x0f\xe8?'
p401
tp402
Rp403
g5
(g78
S'\x00\x00\x00\x00\x00\x00\xe8?'
p404
tp405
Rp406
tp407
sg87
g5
(g78
S':|z\x153\xe8\xe0?'
p408
tp409
Rp410
sg91
g5
(g78
S'\x15\xbc\x9c\x82\x97S\xe0?'
p411
tp412
Rp413
sg95
I73
sg96
(lp414
(lp415
F0.39669421487603307
aF0.21818181818181817
aa(lp416
F0.2727272727272727
aF0.73
aasg100
(lp417
(lp418
(lp419
F0.07689504373177843
aF0.01239067055393586
aa(lp420
F0.0619533527696793
aF0.09183673469387756
aaa(lp421
(lp422
F0.14504373177842567
aF0.1282798833819242
aa(lp423
F0.18075801749271136
aF0.20699708454810495
aaasg108
(lp424
(lp425
(lp426
F0.08333333333333333
aF0.16
aa(lp427
F0.17391304347826086
aF0.203125
aaa(lp428
(lp429
F0.1
aF0.152
aa(lp430
F0.15217391304347827
aF0.17291666666666666
aaasg116
(lp431
(lp432
(lp433
F0.5
aF0.43333333333333335
aa(lp434
F0.3382352941176471
aF0.3671875
aaa(lp435
(lp436
F0.8
aF0.5266666666666666
aa(lp437
F0.5647058823529412
aF0.41875
aaasg124
(lp438
(lp439
(lp440
F0.14583333333333334
aF0.011363636363636364
aa(lp441
F0.11885245901639344
aF0.16129032258064516
aaa(lp442
(lp443
F0.22727272727272727
aF0.2689393939393939
aa(lp444
F0.2459016393442623
aF0.3118279569892473
aaasg132
(lp445
(lp446
(lp447
F0.4765625
aF0.675
aa(lp448
F0.6216216216216216
aF0.4027777777777778
aaa(lp449
(lp450
F0.4322916666666667
aF0.43333333333333335
aa(lp451
F0.2882882882882883
aF0.2222222222222222
aaasa(dp452
g3
g4
sg75
(g5
(g78
S'uE]QW\xd4\xe5?'
p453
tp454
Rp455
g5
(g78
S'!\r\xd2 \r\xd2\xec?'
p456
tp457
Rp458
tp459
sg87
g5
(g78
S'\x15\xbc\x9c\x82\x97S\xe0?'
p460
tp461
Rp462
sg91
g5
(g78
S'\x15\xbc\x9c\x82\x97S\xe0?'
p463
tp464
Rp465
sg95
I28
sg96
(lp466
(lp467
F0.40625
aF0.36538461538461536
aa(lp468
F0.019230769230769232
aF0.3136094674556213
aasg100
(lp469
(lp470
(lp471
F0.24074074074074073
aF0.07037037037037037
aa(lp472
F0.13518518518518519
aF0.16148148148148148
aaa(lp473
(lp474
F0.1
aF0.06888888888888889
aa(lp475
F0.04888888888888889
aF0.11703703703703704
aaasg108
(lp476
(lp477
(lp478
F0.08333333333333333
aF0.16
aa(lp479
F0.17391304347826086
aF0.203125
aaa(lp480
(lp481
F0.09722222222222222
aF0.15333333333333332
aa(lp482
F0.14492753623188406
aF0.1796875
aaasg116
(lp483
(lp484
(lp485
F0.5
aF0.43333333333333335
aa(lp486
F0.3382352941176471
aF0.3671875
aaa(lp487
(lp488
F0.8333333333333334
aF0.5222222222222223
aa(lp489
F0.5588235294117647
aF0.4010416666666667
aaasg124
(lp490
(lp491
(lp492
F0.3717948717948718
aF0.051643192488262914
aa(lp493
F0.18222222222222223
aF0.17857142857142858
aaa(lp494
(lp495
F0.2
aF0.13802816901408452
aa(lp496
F0.11466666666666667
aF0.21
aaasg132
(lp497
(lp498
(lp499
F0.23333333333333334
aF0.5263157894736842
aa(lp500
F0.28888888888888886
aF0.4392156862745098
aaa(lp501
(lp502
F0.44
aF0.5368421052631579
aa(lp503
F0.6933333333333334
aF0.4164705882352941
aaasa(dp504
g3
g4
sg75
(g5
(g78
S'E]QW\xd4\x15\xe5?'
p505
tp506
Rp507
g5
(g78
S"b'vb'v\xea?"
p508
tp509
Rp510
tp511
sg87
g5
(g78
S':|z\x153\xe8\xe0?'
p512
tp513
Rp514
sg91
g5
(g78
S'\x02\xdc-\xb9I\t\xe0?'
p515
tp516
Rp517
sg95
I18
sg96
(lp518
(lp519
F0.5625
aF0.3076923076923077
aa(lp520
F0.028846153846153848
aF0.40236686390532544
aasg100
(lp521
(lp522
(lp523
F0.20699708454810495
aF0.18075801749271136
aa(lp524
F0.1282798833819242
aF0.14504373177842567
aaa(lp525
(lp526
F0.13848396501457727
aF0.11880466472303207
aa(lp527
F0.029154518950437316
aF0.13338192419825073
aaasg108
(lp528
(lp529
(lp530
F0.08333333333333333
aF0.16
aa(lp531
F0.17391304347826086
aF0.203125
aaa(lp532
(lp533
F0.08928571428571429
aF0.17142857142857143
aa(lp534
F0.14285714285714285
aF0.19791666666666666
aaasg116
(lp535
(lp536
(lp537
F0.5
aF0.43333333333333335
aa(lp538
F0.3382352941176471
aF0.3671875
aaa(lp539
(lp540
F0.8571428571428571
aF0.5333333333333333
aa(lp541
F0.5504201680672269
aF0.3794642857142857
aaasg124
(lp542
(lp543
(lp544
F0.3118279569892473
aF0.2459016393442623
aa(lp545
F0.2689393939393939
aF0.22727272727272727
aaa(lp546
(lp547
F0.1827956989247312
aF0.16939890710382513
aa(lp548
F0.032196969696969696
aF0.19318181818181818
aaasg132
(lp549
(lp550
(lp551
F0.2222222222222222
aF0.2882882882882883
aa(lp552
F0.43333333333333335
aF0.4322916666666667
aaa(lp553
(lp554
F0.4351851851851852
aF0.545045045045045
aa(lp555
F0.6166666666666667
aF0.4453125
aaasa(dp556
g3
g4
sg75
(g5
(g78
S'uE]QW\xd4\xe5?'
p557
tp558
Rp559
g5
(g78
S'\xb8|\xcb\xb7|\xcb\xeb?'
p560
tp561
Rp562
tp563
sg87
g5
(g78
S':|z\x153\xe8\xe0?'
p564
tp565
Rp566
sg91
g5
(g78
S':|z\x153\xe8\xe0?'
p567
tp568
Rp569
sg95
I4
sg96
(lp570
(lp571
F0.5306122448979592
aF0.2857142857142857
aa(lp572
F0.10204081632653061
aF0.33163265306122447
aasg100
(lp573
(lp574
(lp575
F0.15779883381924198
aF0.03498542274052478
aa(lp576
F0.14431486880466474
aF0.17346938775510204
aaa(lp577
(lp578
F0.14504373177842567
aF0.1282798833819242
aa(lp579
F0.18075801749271136
aF0.20699708454810495
aaasg108
(lp580
(lp581
(lp582
F0.08333333333333333
aF0.16
aa(lp583
F0.17391304347826086
aF0.203125
aaa(lp584
(lp585
F0.08854166666666667
aF0.18
aa(lp586
F0.13858695652173914
aF0.19401041666666666
aaasg116
(lp587
(lp588
(lp589
F0.5
aF0.43333333333333335
aa(lp590
F0.3382352941176471
aF0.3671875
aaa(lp591
(lp592
F0.875
aF0.5166666666666667
aa(lp593
F0.5330882352941176
aF0.369140625
aaasg124
(lp594
(lp595
(lp596
F0.18831168831168832
aF0.03409090909090909
aa(lp597
F0.17798594847775176
aF0.2119815668202765
aaa(lp598
(lp599
F0.22727272727272727
aF0.2689393939393939
aa(lp600
F0.2459016393442623
aF0.3118279569892473
aaasg132
(lp601
(lp602
(lp603
F0.421875
aF0.6142857142857143
aa(lp604
F0.528957528957529
aF0.42063492063492064
aaa(lp605
(lp606
F0.4322916666666667
aF0.43333333333333335
aa(lp607
F0.2882882882882883
aF0.2222222222222222
aaasa(dp608
g3
g4
sg75
(g5
(g78
S'\xa5-iK\xda\x92\xe6?'
p609
tp610
Rp611
g5
(g78
S'O\xec\xc4N\xec\xc4\xea?'
p612
tp613
Rp614
tp615
sg87
g5
(g78
S'\x02\xdc-\xb9I\t\xe0?'
p616
tp617
Rp618
sg91
g5
(g78
S'\x15\xbc\x9c\x82\x97S\xe0?'
p619
tp620
Rp621
sg95
I1
sg96
(lp622
(lp623
F0.4567901234567901
aF0.16666666666666666
aa(lp624
F0.2037037037037037
aF0.4513888888888889
aasg100
(lp625
(lp626
(lp627
F0.17796995903504778
aF0.1301775147928994
aa(lp628
F0.11168639053254438
aF0.20072115384615385
aaa(lp629
(lp630
F0.1878698224852071
aF0.22235576923076922
aa(lp631
F0.08173076923076923
aF0.322265625
aaasg108
(lp632
(lp633
(lp634
F0.08333333333333333
aF0.16
aa(lp635
F0.17391304347826086
aF0.203125
aaa(lp636
(lp637
F0.125
aF0.2222222222222222
aa(lp638
F0.17391304347826086
aF0.2355324074074074
aaasg116
(lp639
(lp640
(lp641
F0.5
aF0.43333333333333335
aa(lp642
F0.3382352941176471
aF0.3671875
aaa(lp643
(lp644
F0.7777777777777778
aF0.4777777777777778
aa(lp645
F0.49019607843137253
aF0.3454861111111111
aaasg124
(lp646
(lp647
(lp648
F0.26299694189602446
aF0.16898148148148148
aa(lp649
F0.20786516853932585
aF0.3055555555555556
aaa(lp650
(lp651
F0.1853211009174312
aF0.2111111111111111
aa(lp652
F0.07415730337078652
aF0.36666666666666664
aaasg132
(lp653
(lp654
(lp655
F0.39166666666666666
aF0.4635416666666667
aa(lp656
F0.5555555555555556
aF0.3181818181818182
aaa(lp657
(lp658
F0.49
aF0.31875
aa(lp659
F0.5333333333333333
aF0.2
aaasa(dp660
g3
g4
sg75
(g5
(g78
S'6eMYS\xd6\xe4?'
p661
tp662
Rp663
g5
(g78
S'\x834H\x834H\xeb?'
p664
tp665
Rp666
tp667
sg87
g5
(g78
S'\x02\xdc-\xb9I\t\xe0?'
p668
tp669
Rp670
sg91
g5
(g78
S'\x02\xdc-\xb9I\t\xe0?'
p671
tp672
Rp673
sg95
I9
sg96
(lp674
(lp675
F0.40236686390532544
aF0.04807692307692308
aa(lp676
F0.22115384615384615
aF0.53125
aasg100
(lp677
(lp678
(lp679
F0.20163859808830223
aF0.14644970414201183
aa(lp680
F0.11982248520710059
aF0.2247596153846154
aaa(lp681
(lp682
F0.1878698224852071
aF0.22235576923076922
aa(lp683
F0.08173076923076923
aF0.322265625
aaasg108
(lp684
(lp685
(lp686
F0.08333333333333333
aF0.16
aa(lp687
F0.17391304347826086
aF0.203125
aaa(lp688
(lp689
F0.125
aF0.21
aa(lp690
F0.16304347826086957
aF0.2234375
aaasg116
(lp691
(lp692
(lp693
F0.5
aF0.43333333333333335
aa(lp694
F0.3382352941176471
aF0.3671875
aaa(lp695
(lp696
F0.8
aF0.4766666666666667
aa(lp697
F0.5058823529411764
aF0.3421875
aaasg124
(lp698
(lp699
(lp700
F0.24508519003931847
aF0.1527777777777778
aa(lp701
F0.18780096308186195
aF0.2891156462585034
aaa(lp702
(lp703
F0.1853211009174312
aF0.2111111111111111
aa(lp704
F0.07415730337078652
aF0.36666666666666664
aaasg132
(lp705
(lp706
(lp707
F0.3904761904761905
aF0.45982142857142855
aa(lp708
F0.5714285714285714
aF0.33766233766233766
aaa(lp709
(lp710
F0.49
aF0.31875
aa(lp711
F0.5333333333333333
aF0.2
aaasa(dp712
g3
g4
sg75
(g5
(g78
S'\x06}A_\xd0\x17\xe4?'
p713
tp714
Rp715
g5
(g78
S'\xb8|\xcb\xb7|\xcb\xeb?'
p716
tp717
Rp718
tp719
sg87
g5
(g78
S'\x02\xdc-\xb9I\t\xe0?'
p720
tp721
Rp722
sg91
g5
(g78
S'\x02\xdc-\xb9I\t\xe0?'
p723
tp724
Rp725
sg95
I22
sg96
(lp726
(lp727
F0.3727810650887574
aF0.028846153846153848
aa(lp728
F0.21153846153846154
aF0.53125
aasg100
(lp729
(lp730
(lp731
F0.322265625
aF0.08173076923076923
aa(lp732
F0.22235576923076922
aF0.1878698224852071
aaa(lp733
(lp734
F0.2439903846153846
aF0.128698224852071
aa(lp735
F0.16198224852071005
aF0.22530723714155668
aaasg108
(lp736
(lp737
(lp738
F0.125
aF0.19333333333333333
aa(lp739
F0.17391304347826086
aF0.16666666666666666
aaa(lp740
(lp741
F0.125
aF0.21
aa(lp742
F0.16304347826086957
aF0.2234375
aaasg116
(lp743
(lp744
(lp745
F0.3333333333333333
aF0.43333333333333335
aa(lp746
F0.4411764705882353
aF0.4375
aaa(lp747
(lp748
F0.8
aF0.4766666666666667
aa(lp749
F0.5058823529411764
aF0.3421875
aaasg124
(lp750
(lp751
(lp752
F0.36666666666666664
aF0.07415730337078652
aa(lp753
F0.2111111111111111
aF0.1853211009174312
aaa(lp754
(lp755
F0.2648809523809524
aF0.17837078651685392
aa(lp756
F0.14583333333333334
aF0.2408256880733945
aaasg132
(lp757
(lp758
(lp759
F0.2
aF0.5333333333333333
aa(lp760
F0.31875
aF0.49
aaa(lp761
(lp762
F0.3522727272727273
aF0.6083333333333333
aa(lp763
F0.47265625
aF0.40625
aaasa(dp764
g3
g4
sg75
(g5
(g78
S'\x06}A_\xd0\x17\xe4?'
p765
tp766
Rp767
g5
(g78
S'\xab\xaa\xaa\xaa\xaa\xaa\xea?'
p768
tp769
Rp770
tp771
sg87
g5
(g78
S'\x02\xdc-\xb9I\t\xe0?'
p772
tp773
Rp774
sg91
g5
(g78
S'\x15\xbc\x9c\x82\x97S\xe0?'
p775
tp776
Rp777
sg95
I17
sg96
(lp778
(lp779
F0.3541666666666667
aF0.12037037037037036
aa(lp780
F0.17592592592592593
aF0.6172839506172839
aasg100
(lp781
(lp782
(lp783
F0.26172052799271733
aF0.1893491124260355
aa(lp784
F0.15088757396449703
aF0.296875
aaa(lp785
(lp786
F0.1878698224852071
aF0.22235576923076922
aa(lp787
F0.08173076923076923
aF0.322265625
aaasg108
(lp788
(lp789
(lp790
F0.125
aF0.19333333333333333
aa(lp791
F0.17391304347826086
aF0.16666666666666666
aaa(lp792
(lp793
F0.13636363636363635
aF0.22
aa(lp794
F0.17391304347826086
aF0.23958333333333334
aaasg116
(lp795
(lp796
(lp797
F0.3333333333333333
aF0.43333333333333335
aa(lp798
F0.4411764705882353
aF0.4375
aaa(lp799
(lp800
F0.8181818181818182
aF0.4636363636363636
aa(lp801
F0.5
aF0.34517045454545453
aaasg124
(lp802
(lp803
(lp804
F0.2599388379204893
aF0.1574074074074074
aa(lp805
F0.18601747815230962
aF0.30687830687830686
aaa(lp806
(lp807
F0.1853211009174312
aF0.2111111111111111
aa(lp808
F0.07415730337078652
aF0.36666666666666664
aaasg132
(lp809
(lp810
(lp811
F0.4074074074074074
aF0.4652777777777778
aa(lp812
F0.5925925925925926
aF0.3383838383838384
aaa(lp813
(lp814
F0.49
aF0.31875
aa(lp815
F0.5333333333333333
aF0.2
aaasa(dp816
g3
g4
sg75
(g5
(g78
S'\x16uE]QW\xe4?'
p817
tp818
Rp819
g5
(g78
S'\\\xbe\xe5[\xbe\xe5\xeb?'
p820
tp821
Rp822
tp823
sg87
g5
(g78
S'\x02\xdc-\xb9I\t\xe0?'
p824
tp825
Rp826
sg91
g5
(g78
S'\x02\xdc-\xb9I\t\xe0?'
p827
tp828
Rp829
sg95
I8
sg96
(lp830
(lp831
F0.421875
aF0.22115384615384615
aa(lp832
F0.057692307692307696
aF0.3905325443786982
aasg100
(lp833
(lp834
(lp835
F0.322265625
aF0.08173076923076923
aa(lp836
F0.22235576923076922
aF0.1878698224852071
aaa(lp837
(lp838
F0.3329326923076923
aF0.16272189349112426
aa(lp839
F0.20784023668639054
aF0.2976786527082385
aaasg108
(lp840
(lp841
(lp842
F0.16666666666666666
aF0.21
aa(lp843
F0.1793478260869565
aF0.17447916666666666
aaa(lp844
(lp845
F0.13636363636363635
aF0.22
aa(lp846
F0.17391304347826086
aF0.23958333333333334
aaasg116
(lp847
(lp848
(lp849
F0.5
aF0.4
aa(lp850
F0.41911764705882354
aF0.421875
aaa(lp851
(lp852
F0.8181818181818182
aF0.4636363636363636
aa(lp853
F0.5
aF0.34517045454545453
aaasg124
(lp854
(lp855
(lp856
F0.36666666666666664
aF0.07415730337078652
aa(lp857
F0.2111111111111111
aF0.1853211009174312
aaa(lp858
(lp859
F0.31666666666666665
aF0.17303370786516853
aa(lp860
F0.15833333333333333
aF0.26422018348623855
aaasg132
(lp861
(lp862
(lp863
F0.2
aF0.5333333333333333
aa(lp864
F0.31875
aF0.49
aaa(lp865
(lp866
F0.34545454545454546
aF0.56
aa(lp867
F0.478125
aF0.39
aaasa(dp868
g3
g4
sg75
(g5
(g78
S'6eMYS\xd6\xe4?'
p869
tp870
Rp871
g5
(g78
S'\\\xbe\xe5[\xbe\xe5\xeb?'
p872
tp873
Rp874
tp875
sg87
g5
(g78
S'\x02\xdc-\xb9I\t\xe0?'
p876
tp877
Rp878
sg91
g5
(g78
S'\x02\xdc-\xb9I\t\xe0?'
p879
tp880
Rp881
sg95
I6
sg96
(lp882
(lp883
F0.34375
aF0.21153846153846154
aa(lp884
F0.057692307692307696
aF0.4378698224852071
aasg100
(lp885
(lp886
(lp887
F0.322265625
aF0.08173076923076923
aa(lp888
F0.22235576923076922
aF0.1878698224852071
aaa(lp889
(lp890
F0.3641826923076923
aF0.1812130177514793
aa(lp891
F0.22263313609467456
aF0.3309057806099226
aaasg108
(lp892
(lp893
(lp894
F0.16666666666666666
aF0.21
aa(lp895
F0.1793478260869565
aF0.17447916666666666
aaa(lp896
(lp897
F0.1388888888888889
aF0.21333333333333335
aa(lp898
F0.17753623188405798
aF0.23350694444444445
aaasg116
(lp899
(lp900
(lp901
F0.5
aF0.4
aa(lp902
F0.41911764705882354
aF0.421875
aaa(lp903
(lp904
F0.8333333333333334
aF0.4583333333333333
aa(lp905
F0.47794117647058826
aF0.3385416666666667
aaasg124
(lp906
(lp907
(lp908
F0.36666666666666664
aF0.07415730337078652
aa(lp909
F0.2111111111111111
aF0.1853211009174312
aaa(lp910
(lp911
F0.3051948051948052
aF0.17058222676200205
aa(lp912
F0.14646464646464646
aF0.2652210175145955
aaasg132
(lp913
(lp914
(lp915
F0.2
aF0.5333333333333333
aa(lp916
F0.31875
aF0.49
aaa(lp917
(lp918
F0.3305785123966942
aF0.5272727272727272
aa(lp919
F0.4744318181818182
aF0.3803030303030303
aaasa(dp920
g3
g4
sg75
(g5
(g78
S'UUUUUU\xe5?'
p921
tp922
Rp923
g5
(g78
S'p\xf9\x96o\xf9\x96\xeb?'
p924
tp925
Rp926
tp927
sg87
g5
(g78
S'\x02\xdc-\xb9I\t\xe0?'
p928
tp929
Rp930
sg91
g5
(g78
S'r\x1c\xc7q\x1c\xc7\xe1?'
p931
tp932
Rp933
sg95
I10
sg96
(lp934
(lp935
F0.35986159169550175
aF0.058823529411764705
aa(lp936
F0.1323529411764706
aF0.75
aasg100
(lp937
(lp938
(lp939
F0.322265625
aF0.08173076923076923
aa(lp940
F0.22235576923076922
aF0.1878698224852071
aaa(lp941
(lp942
F0.3858173076923077
aF0.1900887573964497
aa(lp943
F0.23520710059171598
aF0.34865725989986346
aaasg108
(lp944
(lp945
(lp946
F0.16666666666666666
aF0.21
aa(lp947
F0.1793478260869565
aF0.17447916666666666
aaa(lp948
(lp949
F0.1282051282051282
aF0.20307692307692307
aa(lp950
F0.16555183946488294
aF0.2247596153846154
aaasg116
(lp951
(lp952
(lp953
F0.5
aF0.4
aa(lp954
F0.41911764705882354
aF0.421875
aaa(lp955
(lp956
F0.8461538461538461
aF0.46153846153846156
aa(lp957
F0.48642533936651583
aF0.3545673076923077
aaasg124
(lp958
(lp959
(lp960
F0.36666666666666664
aF0.07415730337078652
aa(lp961
F0.2111111111111111
aF0.1853211009174312
aaa(lp962
(lp963
F0.2896825396825397
aF0.16198501872659177
aa(lp964
F0.1400462962962963
aF0.25229357798165136
aaasg132
(lp965
(lp966
(lp967
F0.2
aF0.5333333333333333
aa(lp968
F0.31875
aF0.49
aaa(lp969
(lp970
F0.3371212121212121
aF0.5333333333333333
aa(lp971
F0.4869791666666667
aF0.39444444444444443
aaasa(dp972
g3
g4
sg75
(g5
(g78
S'\x06}A_\xd0\x17\xe4?'
p973
tp974
Rp975
g5
(g78
S'\xa4A\x1a\xa4A\x1a\xec?'
p976
tp977
Rp978
tp979
sg87
g5
(g78
S'\x02\xdc-\xb9I\t\xe0?'
p980
tp981
Rp982
sg91
g5
(g78
S'\x02\xdc-\xb9I\t\xe0?'
p983
tp984
Rp985
sg95
I9
sg96
(lp986
(lp987
F0.34375
aF0.21153846153846154
aa(lp988
F0.057692307692307696
aF0.40828402366863903
aasg100
(lp989
(lp990
(lp991
F0.35546875
aF0.08774038461538461
aa(lp992
F0.23557692307692307
aF0.1952662721893491
aaa(lp993
(lp994
F0.3858173076923077
aF0.1900887573964497
aa(lp995
F0.23520710059171598
aF0.34865725989986346
aaasg108
(lp996
(lp997
(lp998
F0.16666666666666666
aF0.21
aa(lp999
F0.1793478260869565
aF0.17447916666666666
aaa(lp1000
(lp1001
F0.11904761904761904
aF0.19
aa(lp1002
F0.15372670807453417
aF0.2105654761904762
aaasg116
(lp1003
(lp1004
(lp1005
F0.5
aF0.4
aa(lp1006
F0.41911764705882354
aF0.421875
aaa(lp1007
(lp1008
F0.8571428571428571
aF0.48333333333333334
aa(lp1009
F0.5105042016806722
aF0.37388392857142855
aaasg124
(lp1010
(lp1011
(lp1012
F0.31746031746031744
aF0.06554307116104868
aa(lp1013
F0.17592592592592593
aF0.1559633027522936
aaa(lp1014
(lp1015
F0.2896825396825397
aF0.16198501872659177
aa(lp1016
F0.1400462962962963
aF0.25229357798165136
aaasg132
(lp1017
(lp1018
(lp1019
F0.22727272727272727
aF0.5777777777777777
aa(lp1020
F0.375
aF0.55
aaa(lp1021
(lp1022
F0.3371212121212121
aF0.5333333333333333
aa(lp1023
F0.4869791666666667
aF0.39444444444444443
aaasa(dp1024
g3
g4
sg75
(g5
(g78
S'\x16uE]QW\xe4?'
p1025
tp1026
Rp1027
g5
(g78
S'\\\xbe\xe5[\xbe\xe5\xeb?'
p1028
tp1029
Rp1030
tp1031
sg87
g5
(g78
S'\x02\xdc-\xb9I\t\xe0?'
p1032
tp1033
Rp1034
sg91
g5
(g78
S'\x02\xdc-\xb9I\t\xe0?'
p1035
tp1036
Rp1037
sg95
I6
sg96
(lp1038
(lp1039
F0.4
aF0.15454545454545454
aa(lp1040
F0.12727272727272726
aF0.4214876033057851
aasg100
(lp1041
(lp1042
(lp1043
F0.404296875
aF0.09495192307692307
aa(lp1044
F0.27884615384615385
aF0.22707100591715976
aaa(lp1045
(lp1046
F0.3858173076923077
aF0.1900887573964497
aa(lp1047
F0.23520710059171598
aF0.34865725989986346
aaasg108
(lp1048
(lp1049
(lp1050
F0.16666666666666666
aF0.21
aa(lp1051
F0.1793478260869565
aF0.17447916666666666
aaa(lp1052
(lp1053
F0.1111111111111111
aF0.18933333333333333
aa(lp1054
F0.1463768115942029
aF0.20451388888888888
aaasg116
(lp1055
(lp1056
(lp1057
F0.5
aF0.4
aa(lp1058
F0.41911764705882354
aF0.421875
aaa(lp1059
(lp1060
F0.8
aF0.47555555555555556
aa(lp1061
F0.5176470588235295
aF0.37083333333333335
aaasg124
(lp1062
(lp1063
(lp1064
F0.30272108843537415
aF0.060995184590690206
aa(lp1065
F0.17261904761904762
aF0.14809960681520315
aaa(lp1066
(lp1067
F0.2896825396825397
aF0.16198501872659177
aa(lp1068
F0.1400462962962963
aF0.25229357798165136
aaasg132
(lp1069
(lp1070
(lp1071
F0.23376623376623376
aF0.6095238095238096
aa(lp1072
F0.35267857142857145
aF0.5380952380952381
aaa(lp1073
(lp1074
F0.3371212121212121
aF0.5333333333333333
aa(lp1075
F0.4869791666666667
aF0.39444444444444443
aaasa(dp1076
g3
g4
sg75
(g5
(g78
S'\xa5-iK\xda\x92\xe6?'
p1077
tp1078
Rp1079
g5
(g78
S';\xb1\x13;\xb1\x13\xeb?'
p1080
tp1081
Rp1082
tp1083
sg87
g5
(g78
S'\x02\xdc-\xb9I\t\xe0?'
p1084
tp1085
Rp1086
sg91
g5
(g78
S':|z\x153\xe8\xe0?'
p1087
tp1088
Rp1089
sg95
I25
sg96
(lp1090
(lp1091
F0.3979591836734694
aF0.07142857142857142
aa(lp1092
F0.2755102040816326
aF0.5510204081632653
aasg100
(lp1093
(lp1094
(lp1095
F0.34865725989986346
aF0.23520710059171598
aa(lp1096
F0.1900887573964497
aF0.3858173076923077
aaa(lp1097
(lp1098
F0.29142011834319526
aF0.3269230769230769
aa(lp1099
F0.125
aF0.49609375
aaasg108
(lp1100
(lp1101
(lp1102
F0.16666666666666666
aF0.21
aa(lp1103
F0.1793478260869565
aF0.17447916666666666
aaa(lp1104
(lp1105
F0.11458333333333333
aF0.19875
aa(lp1106
F0.15081521739130435
aF0.21451822916666666
aaasg116
(lp1107
(lp1108
(lp1109
F0.5
aF0.4
aa(lp1110
F0.41911764705882354
aF0.421875
aaa(lp1111
(lp1112
F0.8125
aF0.45208333333333334
aa(lp1113
F0.5128676470588235
aF0.359375
aaasg124
(lp1114
(lp1115
(lp1116
F0.25229357798165136
aF0.1400462962962963
aa(lp1117
F0.16198501872659177
aF0.2896825396825397
aaa(lp1118
(lp1119
F0.18004587155963303
aF0.18229166666666666
aa(lp1120
F0.07162921348314606
aF0.34226190476190477
aaasg132
(lp1121
(lp1122
(lp1123
F0.39444444444444443
aF0.4869791666666667
aa(lp1124
F0.5333333333333333
aF0.3371212121212121
aaa(lp1125
(lp1126
F0.50625
aF0.34765625
aa(lp1127
F0.5583333333333333
aF0.21022727272727273
aaasa(dp1128
g3
g4
sg75
(g5
(g78
S'\xd4\x15uE]Q\xe7?'
p1129
tp1130
Rp1131
g5
(g78
S';\xb1\x13;\xb1\x13\xeb?'
p1132
tp1133
Rp1134
tp1135
sg87
g5
(g78
S'\x02\xdc-\xb9I\t\xe0?'
p1136
tp1137
Rp1138
sg91
g5
(g78
S'r\x1c\xc7q\x1c\xc7\xe1?'
p1139
tp1140
Rp1141
sg95
I26
sg96
(lp1142
(lp1143
F0.4013840830449827
aF0.07352941176470588
aa(lp1144
F0.1323529411764706
aF0.75
aasg100
(lp1145
(lp1146
(lp1147
F0.35821574874829315
aF0.24334319526627218
aa(lp1148
F0.19230769230769232
aF0.4026442307692308
aaa(lp1149
(lp1150
F0.29142011834319526
aF0.3269230769230769
aa(lp1151
F0.125
aF0.49609375
aaasg108
(lp1152
(lp1153
(lp1154
F0.13333333333333333
aF0.176
aa(lp1155
F0.14782608695652175
aF0.14583333333333334
aaa(lp1156
(lp1157
F0.11458333333333333
aF0.19875
aa(lp1158
F0.15081521739130435
aF0.21451822916666666
aaasg116
(lp1159
(lp1160
(lp1161
F0.6
aF0.4533333333333333
aa(lp1162
F0.5
aF0.4625
aaa(lp1163
(lp1164
F0.8125
aF0.45208333333333334
aa(lp1165
F0.5128676470588235
aF0.359375
aaasg124
(lp1166
(lp1167
(lp1168
F0.23429781227946367
aF0.13141025641025642
aa(lp1169
F0.15038893690579083
aF0.27472527472527475
aaa(lp1170
(lp1171
F0.18004587155963303
aF0.18229166666666666
aa(lp1172
F0.07162921348314606
aF0.34226190476190477
aaasg132
(lp1173
(lp1174
(lp1175
F0.4166666666666667
aF0.5048076923076923
aa(lp1176
F0.558974358974359
aF0.3531468531468531
aaa(lp1177
(lp1178
F0.50625
aF0.34765625
aa(lp1179
F0.5583333333333333
aF0.21022727272727273
aaasaa(lp1180
(dp1181
g3
(lp1182
g5
(g9
S'\x06\x00\x00\x00\x00\x00\x00\x00'
p1183
tp1184
Rp1185
ag5
(g9
S'\x00\x00\x00\x00\x00\x00\x00\x00'
p1186
tp1187
Rp1188
ag5
(g9
S'\x0e\x00\x00\x00\x00\x00\x00\x00'
p1189
tp1190
Rp1191
ag5
(g9
S'\x10\x00\x00\x00\x00\x00\x00\x00'
p1192
tp1193
Rp1194
ag5
(g9
S'\x01\x00\x00\x00\x00\x00\x00\x00'
p1195
tp1196
Rp1197
ag5
(g9
S'\n\x00\x00\x00\x00\x00\x00\x00'
p1198
tp1199
Rp1200
ag5
(g9
S'\t\x00\x00\x00\x00\x00\x00\x00'
p1201
tp1202
Rp1203
ag5
(g9
S'\x0f\x00\x00\x00\x00\x00\x00\x00'
p1204
tp1205
Rp1206
ag5
(g9
S'\x0b\x00\x00\x00\x00\x00\x00\x00'
p1207
tp1208
Rp1209
ag5
(g9
S'\x04\x00\x00\x00\x00\x00\x00\x00'
p1210
tp1211
Rp1212
ag5
(g9
S'\x11\x00\x00\x00\x00\x00\x00\x00'
p1213
tp1214
Rp1215
ag5
(g9
S'\x08\x00\x00\x00\x00\x00\x00\x00'
p1216
tp1217
Rp1218
ag5
(g9
S'\x07\x00\x00\x00\x00\x00\x00\x00'
p1219
tp1220
Rp1221
ag5
(g9
S'\r\x00\x00\x00\x00\x00\x00\x00'
p1222
tp1223
Rp1224
ag5
(g9
S'\x03\x00\x00\x00\x00\x00\x00\x00'
p1225
tp1226
Rp1227
ag5
(g9
S'\x13\x00\x00\x00\x00\x00\x00\x00'
p1228
tp1229
Rp1230
ag5
(g9
S'\x02\x00\x00\x00\x00\x00\x00\x00'
p1231
tp1232
Rp1233
ag5
(g9
S'\x05\x00\x00\x00\x00\x00\x00\x00'
p1234
tp1235
Rp1236
ag5
(g9
S'\x14\x00\x00\x00\x00\x00\x00\x00'
p1237
tp1238
Rp1239
ag5
(g9
S'\x12\x00\x00\x00\x00\x00\x00\x00'
p1240
tp1241
Rp1242
ag5
(g9
S'\x0c\x00\x00\x00\x00\x00\x00\x00'
p1243
tp1244
Rp1245
asg75
(g5
(g78
S'\xc6\x9c1g\xcc\x19\xe3?'
p1246
tp1247
Rp1248
g5
(g78
S'\xb8|\xcb\xb7|\xcb\xe7?'
p1249
tp1250
Rp1251
tp1252
sg87
g5
(g78
S'r\x1c\xc7q\x1c\xc7\xe1?'
p1253
tp1254
Rp1255
sg91
g5
(g78
S'r\x1c\xc7q\x1c\xc7\xe1?'
p1256
tp1257
Rp1258
sg95
I1
sg96
(lp1259
(lp1260
F0.0
aF0.4519230769230769
aa(lp1261
F0.2692307692307692
aF0.48520710059171596
aasg100
(lp1262
(lp1263
(lp1264
F0.0
aF0.0
aa(lp1265
F0.0
aF0.0
aaa(lp1266
(lp1267
F0.0
aF0.03476331360946745
aa(lp1268
F0.020710059171597635
aF0.03732362312243969
aaasg108
(lp1269
(lp1270
(lp1271
F0.0
aF0.0
aa(lp1272
F0.0
aF0.0
aaa(lp1273
(lp1274
F0.041666666666666664
aF0.28
aa(lp1275
F0.13043478260869565
aF0.3072916666666667
aaasg116
(lp1276
(lp1277
(lp1278
F0.0
aF0.0
aa(lp1279
F0.0
aF0.0
aaa(lp1280
(lp1281
F1.0
aF0.6
aa(lp1282
F0.5
aF0.25
aaasg124
(lp1283
(lp1284
(lp1285
F0.0
aF0.0
aa(lp1286
F0.0
aF0.0
aaa(lp1287
(lp1288
F0.0
aF0.31666666666666665
aa(lp1289
F0.15384615384615385
aF0.3828125
aaasg132
(lp1290
(lp1291
(lp1292
F0.0
aF0.0
aa(lp1293
F0.0
aF0.0
aaa(lp1294
(lp1295
F1.0
aF0.36363636363636365
aa(lp1296
F0.38461538461538464
aF0.1951219512195122
aaasa(dp1297
g3
g1182
sg75
(g5
(g78
S'8\xe4\ryC\xde\xe0?'
p1298
tp1299
Rp1300
g5
(g78
S'B\x1a\xa4A\x1a\xa4\xe9?'
p1301
tp1302
Rp1303
tp1304
sg87
g5
(g78
S'\x02\xdc-\xb9I\t\xe0?'
p1305
tp1306
Rp1307
sg91
g5
(g78
S'\x15\xbc\x9c\x82\x97S\xe0?'
p1308
tp1309
Rp1310
sg95
I9
sg96
(lp1311
(lp1312
F0.034722222222222224
aF0.5
aa(lp1313
F0.32407407407407407
aF0.4444444444444444
aasg100
(lp1314
(lp1315
(lp1316
F0.07818930041152264
aF0.026748971193415638
aa(lp1317
F0.0668724279835391
aF0.006944444444444444
aaa(lp1318
(lp1319
F0.05555555555555555
aF0.06095679012345679
aa(lp1320
F0.05169753086419753
aF0.04456018518518518
aaasg108
(lp1321
(lp1322
(lp1323
F0.0
aF0.0
aa(lp1324
F0.0
aF0.0
aaa(lp1325
(lp1326
F0.22916666666666666
aF0.42
aa(lp1327
F0.29347826086956524
aF0.4375
aaasg116
(lp1328
(lp1329
(lp1330
F0.0
aF0.0
aa(lp1331
F0.0
aF0.0
aaa(lp1332
(lp1333
F0.5
aF0.38333333333333336
aa(lp1334
F0.3235294117647059
aF0.203125
aaasg124
(lp1335
(lp1336
(lp1337
F0.6041666666666666
aF0.20430107526881722
aa(lp1338
F0.47368421052631576
aF0.043859649122807015
aaa(lp1339
(lp1340
F0.4791666666666667
aF0.7204301075268817
aa(lp1341
F0.47368421052631576
aF0.4473684210526316
aaasg132
(lp1342
(lp1343
(lp1344
F0.15151515151515152
aF0.5333333333333333
aa(lp1345
F0.2549019607843137
aF0.8666666666666667
aaa(lp1346
(lp1347
F0.06060606060606061
aF0.2
aa(lp1348
F0.21568627450980393
aF0.13333333333333333
aaasa(dp1349
g3
g1182
sg75
(g5
(g78
S'\x08\xfc\x01\x7f\xc0\x1f\xe0?'
p1350
tp1351
Rp1352
g5
(g78
S'\xd9\x89\x9d\xd8\x89\x9d\xe8?'
p1353
tp1354
Rp1355
tp1356
sg87
g5
(g78
S'\x15\xbc\x9c\x82\x97S\xe0?'
p1357
tp1358
Rp1359
sg91
g5
(g78
S':|z\x153\xe8\xe0?'
p1360
tp1361
Rp1362
sg95
I38
sg96
(lp1363
(lp1364
F0.3884297520661157
aF0.3
aa(lp1365
F0.09090909090909091
aF0.47
aasg100
(lp1366
(lp1367
(lp1368
F0.05709992486851991
aF0.01818181818181818
aa(lp1369
F0.047107438016528926
aF0.0018181818181818182
aaa(lp1370
(lp1371
F0.09586776859504133
aF0.07727272727272727
aa(lp1372
F0.0890909090909091
aF0.079
aaasg108
(lp1373
(lp1374
(lp1375
F0.20833333333333334
aF0.26
aa(lp1376
F0.17391304347826086
aF0.09375
aaa(lp1377
(lp1378
F0.22916666666666666
aF0.42
aa(lp1379
F0.29347826086956524
aF0.4375
aaasg116
(lp1380
(lp1381
(lp1382
F0.0
aF0.43333333333333335
aa(lp1383
F0.6470588235294118
aF0.578125
aaa(lp1384
(lp1385
F0.5
aF0.38333333333333336
aa(lp1386
F0.3235294117647059
aF0.203125
aaasg124
(lp1387
(lp1388
(lp1389
F0.5063291139240507
aF0.15053763440860216
aa(lp1390
F0.3880597014925373
aF0.0
aaa(lp1391
(lp1392
F0.34177215189873417
aF0.3817204301075269
aa(lp1393
F0.3283582089552239
aF0.2945205479452055
aaasg132
(lp1394
(lp1395
(lp1396
F0.14285714285714285
aF0.5294117647058824
aa(lp1397
F0.27906976744186046
aF0.9259259259259259
aaa(lp1398
(lp1399
F0.2619047619047619
aF0.5882352941176471
aa(lp1400
F0.37209302325581395
aF0.3333333333333333
aaasa(dp1401
g3
g1182
sg75
(g5
(g78
S'\x16uE]QW\xe4?'
p1402
tp1403
Rp1404
g5
(g78
S'\\\xbe\xe5[\xbe\xe5\xe7?'
p1405
tp1406
Rp1407
tp1408
sg87
g5
(g78
S'\x15\xbc\x9c\x82\x97S\xe0?'
p1409
tp1410
Rp1411
sg91
g5
(g78
S'\x15\xbc\x9c\x82\x97S\xe0?'
p1412
tp1413
Rp1414
sg95
I4
sg96
(lp1415
(lp1416
F0.0
aF0.4909090909090909
aa(lp1417
F0.4
aF0.5206611570247934
aasg100
(lp1418
(lp1419
(lp1420
F0.07663410969196092
aF0.021487603305785124
aa(lp1421
F0.05785123966942149
aF0.0018181818181818182
aaa(lp1422
(lp1423
F0.09586776859504133
aF0.07727272727272727
aa(lp1424
F0.0890909090909091
aF0.079
aaasg108
(lp1425
(lp1426
(lp1427
F0.20833333333333334
aF0.26
aa(lp1428
F0.17391304347826086
aF0.09375
aaa(lp1429
(lp1430
F0.1527777777777778
aF0.2866666666666667
aa(lp1431
F0.1956521739130435
aF0.3003472222222222
aaasg116
(lp1432
(lp1433
(lp1434
F0.0
aF0.43333333333333335
aa(lp1435
F0.6470588235294118
aF0.578125
aaa(lp1436
(lp1437
F0.6666666666666666
aF0.5111111111111111
aa(lp1438
F0.49019607843137253
aF0.34375
aaasg124
(lp1439
(lp1440
(lp1441
F0.25949367088607594
aF0.0913978494623656
aa(lp1442
F0.208955223880597
aF0.0
aaa(lp1443
(lp1444
F0.34177215189873417
aF0.3817204301075269
aa(lp1445
F0.3283582089552239
aF0.2945205479452055
aaasg132
(lp1446
(lp1447
(lp1448
F0.27380952380952384
aF0.7352941176470589
aa(lp1449
F0.5116279069767442
aF0.9629629629629629
aaa(lp1450
(lp1451
F0.2619047619047619
aF0.5882352941176471
aa(lp1452
F0.37209302325581395
aF0.3333333333333333
aaasa(dp1453
g3
g1182
sg75
(g5
(g78
S'\xc6\x9c1g\xcc\x19\xe3?'
p1454
tp1455
Rp1456
g5
(g78
S'p\xf9\x96o\xf9\x96\xe7?'
p1457
tp1458
Rp1459
tp1460
sg87
g5
(g78
S'\x02\xdc-\xb9I\t\xe0?'
p1461
tp1462
Rp1463
sg91
g5
(g78
S'\x15\xbc\x9c\x82\x97S\xe0?'
p1464
tp1465
Rp1466
sg95
I2
sg96
(lp1467
(lp1468
F0.0
aF0.5727272727272728
aa(lp1469
F0.23636363636363636
aF0.5785123966942148
aasg100
(lp1470
(lp1471
(lp1472
F0.16015625
aF0.03245192307692308
aa(lp1473
F0.12139423076923077
aF0.07396449704142012
aaa(lp1474
(lp1475
F0.07572115384615384
aF0.051775147928994084
aa(lp1476
F0.051775147928994084
aF0.07965407373691398
aaasg108
(lp1477
(lp1478
(lp1479
F0.20833333333333334
aF0.26
aa(lp1480
F0.17391304347826086
aF0.09375
aaa(lp1481
(lp1482
F0.11458333333333333
aF0.26
aa(lp1483
F0.15760869565217392
aF0.2552083333333333
aaasg116
(lp1484
(lp1485
(lp1486
F0.0
aF0.43333333333333335
aa(lp1487
F0.6470588235294118
aF0.578125
aaa(lp1488
(lp1489
F0.5
aF0.475
aa(lp1490
F0.5220588235294118
aF0.33984375
aaasg124
(lp1491
(lp1492
(lp1493
F0.2619047619047619
aF0.052434456928838954
aa(lp1494
F0.2037037037037037
aF0.08868501529051988
aaa(lp1495
(lp1496
F0.38095238095238093
aF0.3146067415730337
aa(lp1497
F0.24305555555555555
aF0.40825688073394495
aaasg132
(lp1498
(lp1499
(lp1500
F0.25757575757575757
aF0.7111111111111111
aa(lp1501
F0.40625
aF0.6055555555555555
aaa(lp1502
(lp1503
F0.29545454545454547
aF0.5333333333333333
aa(lp1504
F0.453125
aF0.2833333333333333
aaasa(dp1505
g3
g1182
sg75
(g5
(g78
S'2g\xcc\x19s\xc6\xdc?'
p1506
tp1507
Rp1508
g5
(g78
S'\x97o\xf9\x96o\xf9\xee?'
p1509
tp1510
Rp1511
tp1512
sg87
g5
(g78
S'\x02\xdc-\xb9I\t\xe0?'
p1513
tp1514
Rp1515
sg91
g5
(g78
S'\x15\xbc\x9c\x82\x97S\xe0?'
p1516
tp1517
Rp1518
sg95
I13
sg96
(lp1519
(lp1520
F0.17159763313609466
aF0.14423076923076922
aa(lp1521
F0.23076923076923078
aF0.0
aasg100
(lp1522
(lp1523
(lp1524
F0.09467455621301775
aF0.06360946745562131
aa(lp1525
F0.060650887573964495
aF0.09495192307692307
aaa(lp1526
(lp1527
F0.07396449704142012
aF0.12139423076923077
aa(lp1528
F0.03245192307692308
aF0.16015625
aaasg108
(lp1529
(lp1530
(lp1531
F0.14583333333333334
aF0.17
aa(lp1532
F0.16304347826086957
aF0.06770833333333333
aaa(lp1533
(lp1534
F0.11458333333333333
aF0.26
aa(lp1535
F0.15760869565217392
aF0.2552083333333333
aaasg116
(lp1536
(lp1537
(lp1538
F0.5
aF0.5833333333333334
aa(lp1539
F0.5588235294117647
aF0.5546875
aaa(lp1540
(lp1541
F0.5
aF0.475
aa(lp1542
F0.5220588235294118
aF0.33984375
aaasg124
(lp1543
(lp1544
(lp1545
F0.2966360856269113
aF0.17592592592592593
aa(lp1546
F0.22846441947565543
aF0.29365079365079366
aaa(lp1547
(lp1548
F0.08868501529051988
aF0.2037037037037037
aa(lp1549
F0.052434456928838954
aF0.2619047619047619
aaasg132
(lp1550
(lp1551
(lp1552
F0.38333333333333336
aF0.5
aa(lp1553
F0.5333333333333333
aF0.36363636363636365
aaa(lp1554
(lp1555
F0.6055555555555555
aF0.40625
aa(lp1556
F0.7111111111111111
aF0.25757575757575757
aaasa(dp1557
g3
g1182
sg75
(g5
(g78
S'\xd6\x945eMY\xe3?'
p1558
tp1559
Rp1560
g5
(g78
S'5H\x834H\x83\xec?'
p1561
tp1562
Rp1563
tp1564
sg87
g5
(g78
S'\x02\xdc-\xb9I\t\xe0?'
p1565
tp1566
Rp1567
sg91
g5
(g78
S':|z\x153\xe8\xe0?'
p1568
tp1569
Rp1570
sg95
I33
sg96
(lp1571
(lp1572
F0.336734693877551
aF0.04081632653061224
aa(lp1573
F0.17346938775510204
aF0.5102040816326531
aasg100
(lp1574
(lp1575
(lp1576
F0.1306326809285389
aF0.08210059171597633
aa(lp1577
F0.07248520710059171
aF0.1310096153846154
aaa(lp1578
(lp1579
F0.07396449704142012
aF0.12139423076923077
aa(lp1580
F0.03245192307692308
aF0.16015625
aaasg108
(lp1581
(lp1582
(lp1583
F0.19444444444444445
aF0.2
aa(lp1584
F0.17391304347826086
aF0.1111111111111111
aaa(lp1585
(lp1586
F0.11458333333333333
aF0.26
aa(lp1587
F0.15760869565217392
aF0.2552083333333333
aaasg116
(lp1588
(lp1589
(lp1590
F0.6666666666666666
aF0.4888888888888889
aa(lp1591
F0.49019607843137253
aF0.4947916666666667
aaa(lp1592
(lp1593
F0.5
aF0.475
aa(lp1594
F0.5220588235294118
aF0.33984375
aaasg124
(lp1595
(lp1596
(lp1597
F0.2981651376146789
aF0.1736111111111111
aa(lp1598
F0.1853932584269663
aF0.32142857142857145
aaa(lp1599
(lp1600
F0.08868501529051988
aF0.2037037037037037
aa(lp1601
F0.052434456928838954
aF0.2619047619047619
aaasg132
(lp1602
(lp1603
(lp1604
F0.3458333333333333
aF0.5234375
aa(lp1605
F0.4666666666666667
aF0.375
aaa(lp1606
(lp1607
F0.6055555555555555
aF0.40625
aa(lp1608
F0.7111111111111111
aF0.25757575757575757
aaasa(dp1609
g3
g1182
sg75
(g5
(g78
S'8\xe4\ryC\xde\xe0?'
p1610
tp1611
Rp1612
g5
(g78
S"vb'vb'\xee?"
p1613
tp1614
Rp1615
tp1616
sg87
g5
(g78
S'\x02\xdc-\xb9I\t\xe0?'
p1617
tp1618
Rp1619
sg91
g5
(g78
S'\xbc\x9c\x82\x97S\xf0\xe2?'
p1620
tp1621
Rp1622
sg95
I93
sg96
(lp1623
(lp1624
F0.28
aF0.2125
aa(lp1625
F0.0
aF0.2421875
aasg100
(lp1626
(lp1627
(lp1628
F0.14155666818388712
aF0.08949704142011834
aa(lp1629
F0.07322485207100592
aF0.14783653846153846
aaa(lp1630
(lp1631
F0.07396449704142012
aF0.12139423076923077
aa(lp1632
F0.03245192307692308
aF0.16015625
aaasg108
(lp1633
(lp1634
(lp1635
F0.19444444444444445
aF0.2
aa(lp1636
F0.17391304347826086
aF0.1111111111111111
aaa(lp1637
(lp1638
F0.09166666666666666
aF0.22
aa(lp1639
F0.12608695652173912
aF0.21041666666666667
aaasg116
(lp1640
(lp1641
(lp1642
F0.6666666666666666
aF0.4888888888888889
aa(lp1643
F0.49019607843137253
aF0.4947916666666667
aaa(lp1644
(lp1645
F0.6
aF0.5333333333333333
aa(lp1646
F0.5705882352941176
aF0.39375
aaasg124
(lp1647
(lp1648
(lp1649
F0.24770642201834864
aF0.14166666666666666
aa(lp1650
F0.15056179775280898
aF0.26666666666666666
aaa(lp1651
(lp1652
F0.08868501529051988
aF0.2037037037037037
aa(lp1653
F0.052434456928838954
aF0.2619047619047619
aaasg132
(lp1654
(lp1655
(lp1656
F0.41333333333333333
aF0.5625
aa(lp1657
F0.5733333333333334
aF0.39090909090909093
aaa(lp1658
(lp1659
F0.6055555555555555
aF0.40625
aa(lp1660
F0.7111111111111111
aF0.25757575757575757
aaasa(dp1661
g3
g1182
sg75
(g5
(g78
S'\x16uE]QW\xe4?'
p1662
tp1663
Rp1664
g5
(g78
S'\xa4A\x1a\xa4A\x1a\xec?'
p1665
tp1666
Rp1667
tp1668
sg87
g5
(g78
S'\x02\xdc-\xb9I\t\xe0?'
p1669
tp1670
Rp1671
sg91
g5
(g78
S':|z\x153\xe8\xe0?'
p1672
tp1673
Rp1674
sg95
I766
sg96
(lp1675
(lp1676
F0.328125
aF0.1
aa(lp1677
F0.1
aF0.8
aasg100
(lp1678
(lp1679
(lp1680
F0.23046875
aF0.054086538461538464
aa(lp1681
F0.15865384615384615
aF0.10798816568047337
aaa(lp1682
(lp1683
F0.14783653846153846
aF0.07322485207100592
aa(lp1684
F0.08949704142011834
aF0.14155666818388712
aaasg108
(lp1685
(lp1686
(lp1687
F0.19444444444444445
aF0.2
aa(lp1688
F0.17391304347826086
aF0.1111111111111111
aaa(lp1689
(lp1690
F0.09027777777777778
aF0.21
aa(lp1691
F0.12318840579710146
aF0.2109375
aaasg116
(lp1692
(lp1693
(lp1694
F0.6666666666666666
aF0.4888888888888889
aa(lp1695
F0.49019607843137253
aF0.4947916666666667
aaa(lp1696
(lp1697
F0.6666666666666666
aF0.5277777777777778
aa(lp1698
F0.5637254901960784
aF0.3802083333333333
aaasg124
(lp1699
(lp1700
(lp1701
F0.30357142857142855
aF0.07584269662921349
aa(lp1702
F0.17708333333333334
aF0.10779816513761468
aaa(lp1703
(lp1704
F0.26666666666666666
aF0.15056179775280898
aa(lp1705
F0.14166666666666666
aF0.24770642201834864
aaasg132
(lp1706
(lp1707
(lp1708
F0.23863636363636365
aF0.7
aa(lp1709
F0.3671875
aF0.5875
aaa(lp1710
(lp1711
F0.39090909090909093
aF0.5733333333333334
aa(lp1712
F0.5625
aF0.41333333333333333
aaasa(dp1713
g3
g1182
sg75
(g5
(g78
S'\xc6\x9c1g\xcc\x19\xe3?'
p1714
tp1715
Rp1716
g5
(g78
S'\xec\xc4N\xec\xc4N\xec?'
p1717
tp1718
Rp1719
tp1720
sg87
g5
(g78
S'\x02\xdc-\xb9I\t\xe0?'
p1721
tp1722
Rp1723
sg91
g5
(g78
S'\xbc\x9c\x82\x97S\xf0\xe2?'
p1724
tp1725
Rp1726
sg95
I17
sg96
(lp1727
(lp1728
F0.328125
aF0.0125
aa(lp1729
F0.225
aF0.4
aasg100
(lp1730
(lp1731
(lp1732
F0.17705962676376877
aF0.1220414201183432
aa(lp1733
F0.09467455621301775
aF0.19471153846153846
aaa(lp1734
(lp1735
F0.10798816568047337
aF0.15865384615384615
aa(lp1736
F0.054086538461538464
aF0.23046875
aaasg108
(lp1737
(lp1738
(lp1739
F0.19444444444444445
aF0.2
aa(lp1740
F0.17391304347826086
aF0.1111111111111111
aaa(lp1741
(lp1742
F0.11904761904761904
aF0.22285714285714286
aa(lp1743
F0.15217391304347827
aF0.2269345238095238
aaasg116
(lp1744
(lp1745
(lp1746
F0.6666666666666666
aF0.4888888888888889
aa(lp1747
F0.49019607843137253
aF0.4947916666666667
aaa(lp1748
(lp1749
F0.7142857142857143
aF0.49047619047619045
aa(lp1750
F0.542016806722689
aF0.359375
aaasg124
(lp1751
(lp1752
(lp1753
F0.26299694189602446
aF0.16898148148148148
aa(lp1754
F0.16292134831460675
aF0.30158730158730157
aaa(lp1755
(lp1756
F0.10779816513761468
aF0.17708333333333334
aa(lp1757
F0.07584269662921349
aF0.30357142857142855
aaasg132
(lp1758
(lp1759
(lp1760
F0.3972222222222222
aF0.5208333333333334
aa(lp1761
F0.5444444444444444
aF0.3484848484848485
aaa(lp1762
(lp1763
F0.5875
aF0.3671875
aa(lp1764
F0.7
aF0.23863636363636365
aaasa(dp1765
g3
g1182
sg75
(g5
(g78
S'6eMYS\xd6\xe4?'
p1766
tp1767
Rp1768
g5
(g78
S'p\xf9\x96o\xf9\x96\xeb?'
p1769
tp1770
Rp1771
tp1772
sg87
g5
(g78
S'\x02\xdc-\xb9I\t\xe0?'
p1773
tp1774
Rp1775
sg91
g5
(g78
S':|z\x153\xe8\xe0?'
p1776
tp1777
Rp1778
sg95
I10
sg96
(lp1779
(lp1780
F0.6122448979591837
aF0.20408163265306123
aa(lp1781
F0.061224489795918366
aF0.3622448979591837
aasg100
(lp1782
(lp1783
(lp1784
F0.23046875
aF0.054086538461538464
aa(lp1785
F0.15865384615384615
aF0.10798816568047337
aaa(lp1786
(lp1787
F0.22596153846153846
aF0.11316568047337278
aa(lp1788
F0.13683431952662722
aF0.21028675466545288
aaasg108
(lp1789
(lp1790
(lp1791
F0.19444444444444445
aF0.2
aa(lp1792
F0.17391304347826086
aF0.1111111111111111
aaa(lp1793
(lp1794
F0.125
aF0.2125
aa(lp1795
F0.16032608695652173
aF0.21940104166666666
aaasg116
(lp1796
(lp1797
(lp1798
F0.6666666666666666
aF0.4888888888888889
aa(lp1799
F0.49019607843137253
aF0.4947916666666667
aaa(lp1800
(lp1801
F0.75
aF0.4791666666666667
aa(lp1802
F0.5036764705882353
aF0.34765625
aaasg124
(lp1803
(lp1804
(lp1805
F0.30357142857142855
aF0.07584269662921349
aa(lp1806
F0.17708333333333334
aF0.10779816513761468
aaa(lp1807
(lp1808
F0.2857142857142857
aF0.16051364365971107
aa(lp1809
F0.1488095238095238
aF0.26474442988204455
aaasg132
(lp1810
(lp1811
(lp1812
F0.23863636363636365
aF0.7
aa(lp1813
F0.3671875
aF0.5875
aaa(lp1814
(lp1815
F0.3246753246753247
aF0.49523809523809526
aa(lp1816
F0.5089285714285714
aF0.38095238095238093
aaasa(dp1817
g3
g1182
sg75
(g5
(g78
S'uE]QW\xd4\xe5?'
p1818
tp1819
Rp1820
g5
(g78
S'\xdf\xf2-\xdf\xf2-\xeb?'
p1821
tp1822
Rp1823
tp1824
sg87
g5
(g78
S'\x02\xdc-\xb9I\t\xe0?'
p1825
tp1826
Rp1827
sg91
g5
(g78
S':|z\x153\xe8\xe0?'
p1828
tp1829
Rp1830
sg95
I4
sg96
(lp1831
(lp1832
F0.6530612244897959
aF0.22448979591836735
aa(lp1833
F0.061224489795918366
aF0.3826530612244898
aasg100
(lp1834
(lp1835
(lp1836
F0.23046875
aF0.054086538461538464
aa(lp1837
F0.15865384615384615
aF0.10798816568047337
aaa(lp1838
(lp1839
F0.25841346153846156
aF0.13165680473372782
aa(lp1840
F0.15976331360946747
aF0.24260355029585798
aaasg108
(lp1841
(lp1842
(lp1843
F0.19444444444444445
aF0.2
aa(lp1844
F0.17391304347826086
aF0.1111111111111111
aaa(lp1845
(lp1846
F0.13425925925925927
aF0.21333333333333335
aa(lp1847
F0.16908212560386474
aF0.2204861111111111
aaasg116
(lp1848
(lp1849
(lp1850
F0.6666666666666666
aF0.4888888888888889
aa(lp1851
F0.49019607843137253
aF0.4947916666666667
aaa(lp1852
(lp1853
F0.7777777777777778
aF0.4666666666666667
aa(lp1854
F0.5
aF0.3402777777777778
aaasg124
(lp1855
(lp1856
(lp1857
F0.30357142857142855
aF0.07584269662921349
aa(lp1858
F0.17708333333333334
aF0.10779816513761468
aaa(lp1859
(lp1860
F0.28869047619047616
aF0.16853932584269662
aa(lp1861
F0.14583333333333334
aF0.26490825688073394
aaasg132
(lp1862
(lp1863
(lp1864
F0.23863636363636365
aF0.7
aa(lp1865
F0.3671875
aF0.5875
aaa(lp1866
(lp1867
F0.32954545454545453
aF0.5166666666666667
aa(lp1868
F0.484375
aF0.37083333333333335
aaasa(dp1869
g3
g1182
sg75
(g5
(g78
S'\x06}A_\xd0\x17\xe4?'
p1870
tp1871
Rp1872
g5
(g78
S'\x00\x00\x00\x00\x00\x00\xec?'
p1873
tp1874
Rp1875
tp1876
sg87
g5
(g78
S'\x02\xdc-\xb9I\t\xe0?'
p1877
tp1878
Rp1879
sg91
g5
(g78
S'\x02\xdc-\xb9I\t\xe0?'
p1880
tp1881
Rp1882
sg95
I31
sg96
(lp1883
(lp1884
F0.51
aF0.14545454545454545
aa(lp1885
F0.10909090909090909
aF0.33884297520661155
aasg100
(lp1886
(lp1887
(lp1888
F0.287109375
aF0.06850961538461539
aa(lp1889
F0.19110576923076922
aF0.15680473372781065
aaa(lp1890
(lp1891
F0.25841346153846156
aF0.13165680473372782
aa(lp1892
F0.15976331360946747
aF0.24260355029585798
aaasg108
(lp1893
(lp1894
(lp1895
F0.19444444444444445
aF0.2
aa(lp1896
F0.17391304347826086
aF0.1111111111111111
aaa(lp1897
(lp1898
F0.12916666666666668
aF0.216
aa(lp1899
F0.16304347826086957
aF0.21510416666666668
aaasg116
(lp1900
(lp1901
(lp1902
F0.6666666666666666
aF0.4888888888888889
aa(lp1903
F0.49019607843137253
aF0.4947916666666667
aaa(lp1904
(lp1905
F0.8
aF0.46
aa(lp1906
F0.49117647058823527
aF0.3359375
aaasg124
(lp1907
(lp1908
(lp1909
F0.29523809523809524
aF0.0651685393258427
aa(lp1910
F0.15555555555555556
aF0.14678899082568808
aaa(lp1911
(lp1912
F0.28869047619047616
aF0.16853932584269662
aa(lp1913
F0.14583333333333334
aF0.26490825688073394
aaasg132
(lp1914
(lp1915
(lp1916
F0.22727272727272727
aF0.6266666666666667
aa(lp1917
F0.35625
aF0.56
aaa(lp1918
(lp1919
F0.32954545454545453
aF0.5166666666666667
aa(lp1920
F0.484375
aF0.37083333333333335
aaasa(dp1921
g3
g1182
sg75
(g5
(g78
S'\xb7\xa4-iK\xda\xe2?'
p1922
tp1923
Rp1924
g5
(g78
S'H\x834H\x834\xec?'
p1925
tp1926
Rp1927
tp1928
sg87
g5
(g78
S'\x02\xdc-\xb9I\t\xe0?'
p1929
tp1930
Rp1931
sg91
g5
(g78
S'\x02\xdc-\xb9I\t\xe0?'
p1932
tp1933
Rp1934
sg95
I17
sg96
(lp1935
(lp1936
F0.2975206611570248
aF0.10909090909090909
aa(lp1937
F0.15454545454545454
aF0.48
aasg100
(lp1938
(lp1939
(lp1940
F0.2708238507055075
aF0.17899408284023668
aa(lp1941
F0.15088757396449703
aF0.28725961538461536
aaa(lp1942
(lp1943
F0.15680473372781065
aF0.19110576923076922
aa(lp1944
F0.06850961538461539
aF0.287109375
aaasg108
(lp1945
(lp1946
(lp1947
F0.19444444444444445
aF0.2
aa(lp1948
F0.17391304347826086
aF0.1111111111111111
aaa(lp1949
(lp1950
F0.11742424242424243
aF0.20727272727272728
aa(lp1951
F0.16600790513833993
aF0.21922348484848486
aaasg116
(lp1952
(lp1953
(lp1954
F0.6666666666666666
aF0.4888888888888889
aa(lp1955
F0.49019607843137253
aF0.4947916666666667
aaa(lp1956
(lp1957
F0.8181818181818182
aF0.46060606060606063
aa(lp1958
F0.4946524064171123
aF0.3380681818181818
aaasg124
(lp1959
(lp1960
(lp1961
F0.26299694189602446
aF0.14506172839506173
aa(lp1962
F0.1735330836454432
aF0.2804232804232804
aaa(lp1963
(lp1964
F0.14678899082568808
aF0.15555555555555556
aa(lp1965
F0.0651685393258427
aF0.29523809523809524
aaasg132
(lp1966
(lp1967
(lp1968
F0.37592592592592594
aF0.4861111111111111
aa(lp1969
F0.5185185185185185
aF0.3282828282828283
aaa(lp1970
(lp1971
F0.56
aF0.35625
aa(lp1972
F0.6266666666666667
aF0.22727272727272727
aaasa(dp1973
g3
g1182
sg75
(g5
(g78
S'\xf6\x84=aO\xd8\xe3?'
p1974
tp1975
Rp1976
g5
(g78
S'\xcb\xb7|\xcb\xb7|\xeb?'
p1977
tp1978
Rp1979
tp1980
sg87
g5
(g78
S'\x02\xdc-\xb9I\t\xe0?'
p1981
tp1982
Rp1983
sg91
g5
(g78
S'\x02\xdc-\xb9I\t\xe0?'
p1984
tp1985
Rp1986
sg95
I11
sg96
(lp1987
(lp1988
F0.53
aF0.15454545454545454
aa(lp1989
F0.11818181818181818
aF0.33884297520661155
aasg100
(lp1990
(lp1991
(lp1992
F0.37890625
aF0.0985576923076923
aa(lp1993
F0.23918269230769232
aF0.22115384615384615
aaa(lp1994
(lp1995
F0.28725961538461536
aF0.15088757396449703
aa(lp1996
F0.17899408284023668
aF0.2708238507055075
aaasg108
(lp1997
(lp1998
(lp1999
F0.19444444444444445
aF0.2
aa(lp2000
F0.17391304347826086
aF0.1111111111111111
aaa(lp2001
(lp2002
F0.12152777777777778
aF0.21833333333333332
aa(lp2003
F0.17028985507246377
aF0.23133680555555555
aaasg116
(lp2004
(lp2005
(lp2006
F0.6666666666666666
aF0.4888888888888889
aa(lp2007
F0.49019607843137253
aF0.4947916666666667
aaa(lp2008
(lp2009
F0.8333333333333334
aF0.4305555555555556
aa(lp2010
F0.49019607843137253
aF0.3255208333333333
aaasg124
(lp2011
(lp2012
(lp2013
F0.3492063492063492
aF0.07865168539325842
aa(lp2014
F0.1712962962962963
aF0.18960244648318042
aaa(lp2015
(lp2016
F0.2804232804232804
aF0.1735330836454432
aa(lp2017
F0.14506172839506173
aF0.26299694189602446
aaasg132
(lp2018
(lp2019
(lp2020
F0.19696969696969696
aF0.5555555555555556
aa(lp2021
F0.3489583333333333
aF0.5138888888888888
aaa(lp2022
(lp2023
F0.3282828282828283
aF0.5185185185185185
aa(lp2024
F0.4861111111111111
aF0.37592592592592594
aaasa(dp2025
g3
g1182
sg75
(g5
(g78
S'eMYS\xd6\x94\xe5?'
p2026
tp2027
Rp2028
g5
(g78
S'\x00\x00\x00\x00\x00\x00\xec?'
p2029
tp2030
Rp2031
tp2032
sg87
g5
(g78
S'\x02\xdc-\xb9I\t\xe0?'
p2033
tp2034
Rp2035
sg91
g5
(g78
S'\x15\xbc\x9c\x82\x97S\xe0?'
p2036
tp2037
Rp2038
sg95
I13
sg96
(lp2039
(lp2040
F0.3727810650887574
aF0.057692307692307696
aa(lp2041
F0.28846153846153844
aF0.421875
aasg100
(lp2042
(lp2043
(lp2044
F0.2885753299954483
aF0.1915680473372781
aa(lp2045
F0.15976331360946747
aF0.3088942307692308
aaa(lp2046
(lp2047
F0.22115384615384615
aF0.23918269230769232
aa(lp2048
F0.0985576923076923
aF0.37890625
aaasg108
(lp2049
(lp2050
(lp2051
F0.19444444444444445
aF0.2
aa(lp2052
F0.17391304347826086
aF0.1111111111111111
aaa(lp2053
(lp2054
F0.11217948717948718
aF0.2076923076923077
aa(lp2055
F0.1588628762541806
aF0.22275641025641027
aaasg116
(lp2056
(lp2057
(lp2058
F0.6666666666666666
aF0.4888888888888889
aa(lp2059
F0.49019607843137253
aF0.4947916666666667
aaa(lp2060
(lp2061
F0.8461538461538461
aF0.4358974358974359
aa(lp2062
F0.497737556561086
aF0.3425480769230769
aaasg124
(lp2063
(lp2064
(lp2065
F0.24770642201834864
aF0.1375
aa(lp2066
F0.16292134831460675
aF0.2642857142857143
aaa(lp2067
(lp2068
F0.18960244648318042
aF0.1712962962962963
aa(lp2069
F0.07865168539325842
aF0.3492063492063492
aaasg132
(lp2070
(lp2071
(lp2072
F0.3933333333333333
aF0.5
aa(lp2073
F0.5266666666666666
aF0.33636363636363636
aaa(lp2074
(lp2075
F0.5138888888888888
aF0.3489583333333333
aa(lp2076
F0.5555555555555556
aF0.19696969696969696
aaasa(dp2077
g3
g1182
sg75
(g5
(g78
S'\x955eMYS\xe6?'
p2078
tp2079
Rp2080
g5
(g78
S'\x834H\x834H\xeb?'
p2081
tp2082
Rp2083
tp2084
sg87
g5
(g78
S'\x02\xdc-\xb9I\t\xe0?'
p2085
tp2086
Rp2087
sg91
g5
(g78
S':|z\x153\xe8\xe0?'
p2088
tp2089
Rp2090
sg95
I10
sg96
(lp2091
(lp2092
F0.39285714285714285
aF0.07142857142857142
aa(lp2093
F0.25510204081632654
aF0.5510204081632653
aasg100
(lp2094
(lp2095
(lp2096
F0.324988620846609
aF0.21893491124260356
aa(lp2097
F0.1819526627218935
aF0.36177884615384615
aaa(lp2098
(lp2099
F0.22115384615384615
aF0.23918269230769232
aa(lp2100
F0.0985576923076923
aF0.37890625
aaasg108
(lp2101
(lp2102
(lp2103
F0.19444444444444445
aF0.2
aa(lp2104
F0.17391304347826086
aF0.1111111111111111
aaa(lp2105
(lp2106
F0.12202380952380952
aF0.21571428571428572
aa(lp2107
F0.16770186335403728
aF0.23549107142857142
aaasg116
(lp2108
(lp2109
(lp2110
F0.6666666666666666
aF0.4888888888888889
aa(lp2111
F0.49019607843137253
aF0.4947916666666667
aaa(lp2112
(lp2113
F0.8571428571428571
aF0.42857142857142855
aa(lp2114
F0.49369747899159666
aF0.34486607142857145
aaasg124
(lp2115
(lp2116
(lp2117
F0.2627189324437031
aF0.14772727272727273
aa(lp2118
F0.17058222676200205
aF0.2987012987012987
aaa(lp2119
(lp2120
F0.18960244648318042
aF0.1712962962962963
aa(lp2121
F0.07865168539325842
aF0.3492063492063492
aaasg132
(lp2122
(lp2123
(lp2124
F0.39545454545454545
aF0.4914772727272727
aa(lp2125
F0.5212121212121212
aF0.32644628099173556
aaa(lp2126
(lp2127
F0.5138888888888888
aF0.3489583333333333
aa(lp2128
F0.5555555555555556
aF0.19696969696969696
aaasa(dp2129
g3
g1182
sg75
(g5
(g78
S'\xb5%mI[\xd2\xe6?'
p2130
tp2131
Rp2132
g5
(g78
S'\x834H\x834H\xeb?'
p2133
tp2134
Rp2135
tp2136
sg87
g5
(g78
S'\x02\xdc-\xb9I\t\xe0?'
p2137
tp2138
Rp2139
sg91
g5
(g78
S':|z\x153\xe8\xe0?'
p2140
tp2141
Rp2142
sg95
I18
sg96
(lp2143
(lp2144
F0.5306122448979592
aF0.2755102040816326
aa(lp2145
F0.07142857142857142
aF0.3979591836734694
aasg100
(lp2146
(lp2147
(lp2148
F0.412109375
aF0.09975961538461539
aa(lp2149
F0.25841346153846156
aF0.23446745562130178
aaa(lp2150
(lp2151
F0.36177884615384615
aF0.1819526627218935
aa(lp2152
F0.21893491124260356
aF0.324988620846609
aaasg108
(lp2153
(lp2154
(lp2155
F0.19444444444444445
aF0.2
aa(lp2156
F0.17391304347826086
aF0.1111111111111111
aaa(lp2157
(lp2158
F0.11388888888888889
aF0.20533333333333334
aa(lp2159
F0.1565217391304348
aF0.22118055555555555
aaasg116
(lp2160
(lp2161
(lp2162
F0.6666666666666666
aF0.4888888888888889
aa(lp2163
F0.49019607843137253
aF0.4947916666666667
aaa(lp2164
(lp2165
F0.8
aF0.45111111111111113
aa(lp2166
F0.503921568627451
aF0.3625
aaasg124
(lp2167
(lp2168
(lp2169
F0.30952380952380953
aF0.06741573033707865
aa(lp2170
F0.15079365079365079
aF0.1651376146788991
aaa(lp2171
(lp2172
F0.2987012987012987
aF0.17058222676200205
aa(lp2173
F0.14772727272727273
aF0.2627189324437031
aaasg132
(lp2174
(lp2175
(lp2176
F0.22077922077922077
aF0.6095238095238096
aa(lp2177
F0.3794642857142857
aF0.5452380952380952
aaa(lp2178
(lp2179
F0.32644628099173556
aF0.5212121212121212
aa(lp2180
F0.4914772727272727
aF0.39545454545454545
aaasa(dp2181
g3
g1182
sg75
(g5
(g78
S'\xd4\x15uE]Q\xe7?'
p2182
tp2183
Rp2184
g5
(g78
S"b'vb'v\xea?"
p2185
tp2186
Rp2187
tp2188
sg87
g5
(g78
S'\x02\xdc-\xb9I\t\xe0?'
p2189
tp2190
Rp2191
sg91
g5
(g78
S':|z\x153\xe8\xe0?'
p2192
tp2193
Rp2194
sg95
I15
sg96
(lp2195
(lp2196
F0.5306122448979592
aF0.2755102040816326
aa(lp2197
F0.07142857142857142
aF0.4489795918367347
aasg100
(lp2198
(lp2199
(lp2200
F0.49609375
aF0.125
aa(lp2201
F0.3269230769230769
aF0.29142011834319526
aaa(lp2202
(lp2203
F0.36177884615384615
aF0.1819526627218935
aa(lp2204
F0.21893491124260356
aF0.324988620846609
aaasg108
(lp2205
(lp2206
(lp2207
F0.16666666666666666
aF0.21
aa(lp2208
F0.1793478260869565
aF0.17447916666666666
aaa(lp2209
(lp2210
F0.11388888888888889
aF0.20533333333333334
aa(lp2211
F0.1565217391304348
aF0.22118055555555555
aaasg116
(lp2212
(lp2213
(lp2214
F0.5
aF0.4
aa(lp2215
F0.41911764705882354
aF0.421875
aaa(lp2216
(lp2217
F0.8
aF0.45111111111111113
aa(lp2218
F0.503921568627451
aF0.3625
aaasg124
(lp2219
(lp2220
(lp2221
F0.34226190476190477
aF0.07162921348314606
aa(lp2222
F0.18229166666666666
aF0.18004587155963303
aaa(lp2223
(lp2224
F0.2987012987012987
aF0.17058222676200205
aa(lp2225
F0.14772727272727273
aF0.2627189324437031
aaasg132
(lp2226
(lp2227
(lp2228
F0.21022727272727273
aF0.5583333333333333
aa(lp2229
F0.34765625
aF0.50625
aaa(lp2230
(lp2231
F0.32644628099173556
aF0.5212121212121212
aa(lp2232
F0.4914772727272727
aF0.39545454545454545
aaasa(dp2233
g3
g1182
sg75
(g5
(g78
S'\xb5%mI[\xd2\xe6?'
p2234
tp2235
Rp2236
g5
(g78
S'\x97o\xf9\x96o\xf9\xea?'
p2237
tp2238
Rp2239
tp2240
sg87
g5
(g78
S'\x02\xdc-\xb9I\t\xe0?'
p2241
tp2242
Rp2243
sg91
g5
(g78
S':|z\x153\xe8\xe0?'
p2244
tp2245
Rp2246
sg95
I5
sg96
(lp2247
(lp2248
F0.5510204081632653
aF0.29591836734693877
aa(lp2249
F0.07142857142857142
aF0.3979591836734694
aasg100
(lp2250
(lp2251
(lp2252
F0.34865725989986346
aF0.23520710059171598
aa(lp2253
F0.1900887573964497
aF0.3858173076923077
aaa(lp2254
(lp2255
F0.29142011834319526
aF0.3269230769230769
aa(lp2256
F0.125
aF0.49609375
aaasg108
(lp2257
(lp2258
(lp2259
F0.16666666666666666
aF0.21
aa(lp2260
F0.1793478260869565
aF0.17447916666666666
aaa(lp2261
(lp2262
F0.11458333333333333
aF0.19875
aa(lp2263
F0.15081521739130435
aF0.21451822916666666
aaasg116
(lp2264
(lp2265
(lp2266
F0.5
aF0.4
aa(lp2267
F0.41911764705882354
aF0.421875
aaa(lp2268
(lp2269
F0.8125
aF0.45208333333333334
aa(lp2270
F0.5128676470588235
aF0.359375
aaasg124
(lp2271
(lp2272
(lp2273
F0.25229357798165136
aF0.1400462962962963
aa(lp2274
F0.16198501872659177
aF0.2896825396825397
aaa(lp2275
(lp2276
F0.18004587155963303
aF0.18229166666666666
aa(lp2277
F0.07162921348314606
aF0.34226190476190477
aaasg132
(lp2278
(lp2279
(lp2280
F0.39444444444444443
aF0.4869791666666667
aa(lp2281
F0.5333333333333333
aF0.3371212121212121
aaa(lp2282
(lp2283
F0.50625
aF0.34765625
aa(lp2284
F0.5583333333333333
aF0.21022727272727273
aaasa(dp2285
g3
g1182
sg75
(g5
(g78
S'\x85=aO\xd8\x13\xe6?'
p2286
tp2287
Rp2288
g5
(g78
S'\xa4A\x1a\xa4A\x1a\xec?'
p2289
tp2290
Rp2291
tp2292
sg87
g5
(g78
S'\x02\xdc-\xb9I\t\xe0?'
p2293
tp2294
Rp2295
sg91
g5
(g78
S'r\x1c\xc7q\x1c\xc7\xe1?'
p2296
tp2297
Rp2298
sg95
I20
sg96
(lp2299
(lp2300
F0.6875
aF0.1323529411764706
aa(lp2301
F0.10294117647058823
aF0.3460207612456747
aasg100
(lp2302
(lp2303
(lp2304
F0.35821574874829315
aF0.24334319526627218
aa(lp2305
F0.19230769230769232
aF0.4026442307692308
aaa(lp2306
(lp2307
F0.29142011834319526
aF0.3269230769230769
aa(lp2308
F0.125
aF0.49609375
aaasg108
(lp2309
(lp2310
(lp2311
F0.13333333333333333
aF0.176
aa(lp2312
F0.14782608695652175
aF0.14583333333333334
aaa(lp2313
(lp2314
F0.11458333333333333
aF0.19875
aa(lp2315
F0.15081521739130435
aF0.21451822916666666
aaasg116
(lp2316
(lp2317
(lp2318
F0.6
aF0.4533333333333333
aa(lp2319
F0.5
aF0.4625
aaa(lp2320
(lp2321
F0.8125
aF0.45208333333333334
aa(lp2322
F0.5128676470588235
aF0.359375
aaasg124
(lp2323
(lp2324
(lp2325
F0.23429781227946367
aF0.13141025641025642
aa(lp2326
F0.15038893690579083
aF0.27472527472527475
aaa(lp2327
(lp2328
F0.18004587155963303
aF0.18229166666666666
aa(lp2329
F0.07162921348314606
aF0.34226190476190477
aaasg132
(lp2330
(lp2331
(lp2332
F0.4166666666666667
aF0.5048076923076923
aa(lp2333
F0.558974358974359
aF0.3531468531468531
aaa(lp2334
(lp2335
F0.50625
aF0.34765625
aa(lp2336
F0.5583333333333333
aF0.21022727272727273
aaasaa.